target datalayout = "e-m:e-p270:32:32-p271:32:32-p272:64:64-i64:64-i128:128-f80:128-n8:16:32:64-S128"
target triple = "x86_64-pc-linux-gnu"

@.str.1 = private unnamed_addr constant [17 x i8] c"0123456789abcdef\00", align 1

; Function Attrs: nounwind uwtable
define hidden void @Curl_hexencode(ptr noundef %0, i64 noundef %1, ptr noundef %2, i64 noundef %3) #0 {
  %5 = alloca ptr, align 8
  %6 = alloca i64, align 8
  %7 = alloca ptr, align 8
  %8 = alloca i64, align 8
  %9 = alloca ptr, align 8
  store ptr %0, ptr %5, align 8, !tbaa !3
  store i64 %1, ptr %6, align 8, !tbaa !11
  store ptr %2, ptr %7, align 8, !tbaa !3
  store i64 %3, ptr %8, align 8, !tbaa !11
  call void @llvm.lifetime.start.p0(i64 8, ptr %9) #5
  store ptr @.str.1, ptr %9, align 8, !tbaa !3
  br label %10

10:                                               ; preds = %4
  br label %11

11:                                               ; preds = %10
  br label %12

12:                                               ; preds = %11
  %13 = load ptr, ptr %5, align 8, !tbaa !3
  %14 = icmp ne ptr %13, null
  br i1 %14, label %15, label %59

15:                                               ; preds = %12
  %16 = load i64, ptr %6, align 8, !tbaa !11
  %17 = icmp ne i64 %16, 0
  br i1 %17, label %18, label %59

18:                                               ; preds = %15
  %19 = load i64, ptr %8, align 8, !tbaa !11
  %20 = icmp uge i64 %19, 3
  br i1 %20, label %21, label %59

21:                                               ; preds = %18
  br label %22

22:                                               ; preds = %31, %21
  %23 = load i64, ptr %6, align 8, !tbaa !11
  %24 = add i64 %23, -1
  store i64 %24, ptr %6, align 8, !tbaa !11
  %25 = icmp ne i64 %23, 0
  br i1 %25, label %26, label %29

26:                                               ; preds = %22
  %27 = load i64, ptr %8, align 8, !tbaa !11
  %28 = icmp uge i64 %27, 3
  br label %29

29:                                               ; preds = %26, %22
  %30 = phi i1 [ false, %22 ], [ %28, %26 ]
  br i1 %30, label %31, label %57

31:                                               ; preds = %29
  %32 = load ptr, ptr %9, align 8, !tbaa !3
  %33 = load ptr, ptr %5, align 8, !tbaa !3
  %34 = load i8, ptr %33, align 1, !tbaa !13
  %35 = zext i8 %34 to i32
  %36 = and i32 %35, 240
  %37 = ashr i32 %36, 4
  %38 = sext i32 %37 to i64
  %39 = getelementptr inbounds i8, ptr %32, i64 %38
  %40 = load i8, ptr %39, align 1, !tbaa !13
  %41 = load ptr, ptr %7, align 8, !tbaa !3
  %42 = getelementptr inbounds nuw i8, ptr %41, i32 1
  store ptr %42, ptr %7, align 8, !tbaa !3
  store i8 %40, ptr %41, align 1, !tbaa !13
  %43 = load ptr, ptr %9, align 8, !tbaa !3
  %44 = load ptr, ptr %5, align 8, !tbaa !3
  %45 = load i8, ptr %44, align 1, !tbaa !13
  %46 = zext i8 %45 to i32
  %47 = and i32 %46, 15
  %48 = sext i32 %47 to i64
  %49 = getelementptr inbounds i8, ptr %43, i64 %48
  %50 = load i8, ptr %49, align 1, !tbaa !13
  %51 = load ptr, ptr %7, align 8, !tbaa !3
  %52 = getelementptr inbounds nuw i8, ptr %51, i32 1
  store ptr %52, ptr %7, align 8, !tbaa !3
  store i8 %50, ptr %51, align 1, !tbaa !13
  %53 = load ptr, ptr %5, align 8, !tbaa !3
  %54 = getelementptr inbounds nuw i8, ptr %53, i32 1
  store ptr %54, ptr %5, align 8, !tbaa !3
  %55 = load i64, ptr %8, align 8, !tbaa !11
  %56 = sub i64 %55, 2
  store i64 %56, ptr %8, align 8, !tbaa !11
  br label %22, !llvm.loop !23

57:                                               ; preds = %29
  %58 = load ptr, ptr %7, align 8, !tbaa !3
  store i8 0, ptr %58, align 1, !tbaa !13
  br label %65

59:                                               ; preds = %18, %15, %12
  %60 = load i64, ptr %8, align 8, !tbaa !11
  %61 = icmp ne i64 %60, 0
  br i1 %61, label %62, label %64

62:                                               ; preds = %59
  %63 = load ptr, ptr %7, align 8, !tbaa !3
  store i8 0, ptr %63, align 1, !tbaa !13
  br label %64

64:                                               ; preds = %62, %59
  br label %65

65:                                               ; preds = %64, %57
  call void @llvm.lifetime.end.p0(i64 8, ptr %9) #5
  ret void
}