; Function Attrs: nofree norecurse nosync nounwind memory(argmem: readwrite) uwtable
define hidden void @Curl_hexencode(ptr noundef readonly %0, i64 noundef %1, ptr noundef writeonly captures(none) %2, i64 noundef %3) local_unnamed_addr #4 {
  %5 = icmp ne ptr %0, null
  %6 = icmp ne i64 %1, 0
  %or.cond = and i1 %5, %6
  %7 = icmp ugt i64 %3, 2
  %or.cond3 = and i1 %or.cond, %7
  br i1 %or.cond3, label %.preheader, label %26

.preheader:                                       ; preds = %4, %.preheader
  %.027 = phi ptr [ %21, %.preheader ], [ %0, %4 ]
  %.01826 = phi i64 [ %22, %.preheader ], [ %3, %4 ]
  %.01925 = phi ptr [ %20, %.preheader ], [ %2, %4 ]
  %.02024 = phi i64 [ %8, %.preheader ], [ %1, %4 ]
  %8 = add i64 %.02024, -1
  %9 = load i8, ptr %.027, align 1, !tbaa !7
  %10 = lshr i8 %9, 4
  %11 = zext nneg i8 %10 to i64
  %12 = getelementptr inbounds nuw i8, ptr @.str.1, i64 %11
  %13 = load i8, ptr %12, align 1, !tbaa !7
  %14 = getelementptr inbounds nuw i8, ptr %.01925, i64 1
  store i8 %13, ptr %.01925, align 1, !tbaa !7
  %15 = load i8, ptr %.027, align 1, !tbaa !7
  %16 = and i8 %15, 15
  %17 = zext nneg i8 %16 to i64
  %18 = getelementptr inbounds nuw i8, ptr @.str.1, i64 %17
  %19 = load i8, ptr %18, align 1, !tbaa !7
  %20 = getelementptr inbounds nuw i8, ptr %.01925, i64 2
  store i8 %19, ptr %14, align 1, !tbaa !7
  %21 = getelementptr inbounds nuw i8, ptr %.027, i64 1
  %22 = add i64 %.01826, -2
  %23 = icmp ne i64 %8, 0
  %24 = icmp ugt i64 %22, 2
  %25 = select i1 %23, i1 %24, i1 false
  br i1 %25, label %.preheader, label %.sink.split, !llvm.loop !17

26:                                               ; preds = %4
  %.not = icmp eq i64 %3, 0
  br i1 %.not, label %27, label %.sink.split

.sink.split:                                      ; preds = %.preheader, %26
  %.sink = phi ptr [ %2, %26 ], [ %20, %.preheader ]
  store i8 0, ptr %.sink, align 1, !tbaa !7
  br label %27

27:                                               ; preds = %.sink.split, %26
  ret void
}